target datalayout = "e-m:e-p270:32:32-p271:32:32-p272:64:64-i64:64-i128:128-f80:128-n8:16:32:64-S128"
target triple = "x86_64-pc-linux-gnu"

%struct.H5HG_t = type { i64, i64 }
%struct.H5O_fill_t = type { %struct.H5O_shared_t, i32, ptr, i64, ptr, i32, i32, i8 }
%struct.H5O_shared_t = type { i32, ptr, i32, %union.anon }
%union.anon = type { %struct.H5O_mesg_loc_t }
%struct.H5O_mesg_loc_t = type { i32, i64 }
%struct.H5O_layout_t = type { i32, i32, ptr, %union.anon.0, %struct.H5O_storage_t }
%union.anon.0 = type { %struct.H5O_layout_chunk_t }
%struct.H5O_layout_chunk_t = type { i32, i8, i32, [33 x i32], i32, i32, i64, i64, [33 x i64], [33 x i64], [33 x i64], [33 x i64], %union.anon.1 }
%union.anon.1 = type { %struct.H5O_layout_chunk_earray_t }
%struct.H5O_layout_chunk_earray_t = type { %struct.anon.2, i32, [33 x i32], [33 x i64], [33 x i64] }
%struct.anon.2 = type { i8, i8, i8, i8, i8 }
%struct.H5O_storage_t = type { i32, %union.anon.4 }
%union.anon.4 = type { %struct.H5O_storage_virtual_t }
%struct.H5O_storage_virtual_t = type { %struct.H5HG_t, i64, ptr, i64, [32 x i64], i32, i64, i64, i64, i8 }

@H5P_init_g = external global i8, align 1
@H5_libterm_g = external global i8, align 1
@.str.1 = private unnamed_addr constant [101 x i8] c"generated/home/dtcxzyw/WorkSpace/Projects/compilers/llvm-opt-benchmark/bench/hdf5/hdf5/src/H5Pdcpl.c\00", align 1
@H5E_CANTINIT_g = external global i64, align 8
@H5E_CANTSET_g = external global i64, align 8
@H5E_DATASET_g = external global i64, align 8
@H5E_UNSUPPORTED_g = external global i64, align 8
@.str.7 = private unnamed_addr constant [20 x i8] c"unknown layout type\00", align 1
@H5E_PLIST_g = external global i64, align 8
@.str.8 = private unnamed_addr constant [17 x i8] c"can't set layout\00", align 1
@.str.9 = private unnamed_addr constant [7 x i8] c"layout\00", align 1
@H5E_CANTGET_g = external global i64, align 8
@.str.63 = private unnamed_addr constant [11 x i8] c"fill_value\00", align 1
@.str.64 = private unnamed_addr constant [21 x i8] c"can't get fill value\00", align 1
@.str.80 = private unnamed_addr constant [17 x i8] c"alloc_time_state\00", align 1
@.str.81 = private unnamed_addr constant [32 x i8] c"can't set space allocation time\00", align 1
@__func__.H5P__set_layout = private unnamed_addr constant [16 x i8] c"H5P__set_layout\00", align 1
@.str.110 = private unnamed_addr constant [38 x i8] c"can't get space allocation time state\00", align 1

; Function Attrs: nounwind uwtable
define internal i32 @H5P__set_layout(ptr noundef %0, ptr noundef %1) #0 {
  %3 = alloca i32, align 4
  %4 = alloca ptr, align 8
  %5 = alloca ptr, align 8
  %6 = alloca i32, align 4
  %7 = alloca i32, align 4
  %8 = alloca i8, align 1
  %9 = alloca %struct.H5O_fill_t, align 8
  %10 = alloca i32, align 4
  store ptr %0, ptr %4, align 8, !tbaa !28
  store ptr %1, ptr %5, align 8, !tbaa !30
  call void @llvm.lifetime.start.p0(i64 4, ptr %6) #11
  call void @llvm.lifetime.start.p0(i64 4, ptr %7) #11
  store i32 0, ptr %7, align 4, !tbaa !8
  call void @llvm.lifetime.start.p0(i64 1, ptr %8) #11
  store i8 0, ptr %8, align 1, !tbaa !10
  %11 = load i8, ptr @H5P_init_g, align 1, !tbaa !10, !range !12, !noundef !13
  %12 = trunc i8 %11 to i1
  br i1 %12, label %17, label %13

13:                                               ; preds = %2
  %14 = load i8, ptr @H5_libterm_g, align 1, !tbaa !10, !range !12, !noundef !13
  %15 = trunc i8 %14 to i1
  %16 = xor i1 %15, true
  br label %17

17:                                               ; preds = %13, %2
  %18 = phi i1 [ true, %2 ], [ %16, %13 ]
  %19 = xor i1 %18, true
  %20 = xor i1 %19, true
  %21 = zext i1 %20 to i32
  %22 = sext i32 %21 to i64
  %23 = call i64 @llvm.expect.i64(i64 %22, i64 1)
  %24 = icmp ne i64 %23, 0
  br i1 %24, label %25, label %157

25:                                               ; preds = %17
  %26 = load ptr, ptr %4, align 8, !tbaa !28
  %27 = call i32 @H5P_get(ptr noundef %26, ptr noundef @.str.80, ptr noundef %6)
  %28 = icmp slt i32 %27, 0
  br i1 %28, label %29, label %48

29:                                               ; preds = %25
  br label %30

30:                                               ; preds = %29
  br label %31

31:                                               ; preds = %30
  br label %32

32:                                               ; preds = %31
  %33 = load i64, ptr @H5E_PLIST_g, align 8, !tbaa !14
  %34 = load i64, ptr @H5E_CANTGET_g, align 8, !tbaa !14
  %35 = call i32 (ptr, ptr, i32, i64, i64, ptr, ...) @H5E_printf_stack(ptr noundef @.str.1, ptr noundef @__func__.H5P__set_layout, i32 noundef 1759, i64 noundef %33, i64 noundef %34, ptr noundef @.str.110)
  br label %36

36:                                               ; preds = %32
  br label %37

37:                                               ; preds = %36
  store i8 1, ptr %8, align 1, !tbaa !10
  %38 = load i8, ptr %8, align 1, !tbaa !10, !range !12, !noundef !13
  %39 = trunc i8 %38 to i1
  %40 = zext i1 %39 to i8
  store i8 %40, ptr %8, align 1, !tbaa !10
  br label %41

41:                                               ; preds = %37
  br label %42

42:                                               ; preds = %41
  br label %43

43:                                               ; preds = %42
  store i32 -1, ptr %7, align 4, !tbaa !8
  br label %156

44:                                               ; No predecessors!
  br label %45

45:                                               ; preds = %44
  br label %46

46:                                               ; preds = %45
  br label %47

47:                                               ; preds = %46
  br label %48

48:                                               ; preds = %47, %25
  %49 = load i32, ptr %6, align 4, !tbaa !8
  %50 = icmp ne i32 %49, 0
  br i1 %50, label %51, label %131

51:                                               ; preds = %48
  call void @llvm.lifetime.start.p0(i64 88, ptr %9) #11
  %52 = load ptr, ptr %4, align 8, !tbaa !28
  %53 = call i32 @H5P_peek(ptr noundef %52, ptr noundef @.str.63, ptr noundef %9)
  %54 = icmp slt i32 %53, 0
  br i1 %54, label %55, label %74

55:                                               ; preds = %51
  br label %56

56:                                               ; preds = %55
  br label %57

57:                                               ; preds = %56
  br label %58

58:                                               ; preds = %57
  %59 = load i64, ptr @H5E_PLIST_g, align 8, !tbaa !14
  %60 = load i64, ptr @H5E_CANTGET_g, align 8, !tbaa !14
  %61 = call i32 (ptr, ptr, i32, i64, i64, ptr, ...) @H5E_printf_stack(ptr noundef @.str.1, ptr noundef @__func__.H5P__set_layout, i32 noundef 1767, i64 noundef %59, i64 noundef %60, ptr noundef @.str.64)
  br label %62

62:                                               ; preds = %58
  br label %63

63:                                               ; preds = %62
  store i8 1, ptr %8, align 1, !tbaa !10
  %64 = load i8, ptr %8, align 1, !tbaa !10, !range !12, !noundef !13
  %65 = trunc i8 %64 to i1
  %66 = zext i1 %65 to i8
  store i8 %66, ptr %8, align 1, !tbaa !10
  br label %67

67:                                               ; preds = %63
  br label %68

68:                                               ; preds = %67
  br label %69

69:                                               ; preds = %68
  store i32 -1, ptr %7, align 4, !tbaa !8
  store i32 10, ptr %10, align 4
  br label %128

70:                                               ; No predecessors!
  br label %71

71:                                               ; preds = %70
  br label %72

72:                                               ; preds = %71
  br label %73

73:                                               ; preds = %72
  br label %74

74:                                               ; preds = %73, %51
  %75 = load ptr, ptr %5, align 8, !tbaa !30
  %76 = getelementptr inbounds nuw %struct.H5O_layout_t, ptr %75, i32 0, i32 0
  %77 = load i32, ptr %76, align 8, !tbaa !32
  switch i32 %77, label %85 [
    i32 0, label %78
    i32 1, label %80
    i32 2, label %82
    i32 3, label %82
    i32 -1, label %84
    i32 4, label %84
  ]

78:                                               ; preds = %74
  %79 = getelementptr inbounds nuw %struct.H5O_fill_t, ptr %9, i32 0, i32 5
  store i32 1, ptr %79, align 8, !tbaa !26
  br label %104

80:                                               ; preds = %74
  %81 = getelementptr inbounds nuw %struct.H5O_fill_t, ptr %9, i32 0, i32 5
  store i32 2, ptr %81, align 8, !tbaa !26
  br label %104

82:                                               ; preds = %74, %74
  %83 = getelementptr inbounds nuw %struct.H5O_fill_t, ptr %9, i32 0, i32 5
  store i32 3, ptr %83, align 8, !tbaa !26
  br label %104

84:                                               ; preds = %74, %74
  br label %85

85:                                               ; preds = %74, %84
  br label %86

86:                                               ; preds = %85
  br label %87

87:                                               ; preds = %86
  br label %88

88:                                               ; preds = %87
  %89 = load i64, ptr @H5E_DATASET_g, align 8, !tbaa !14
  %90 = load i64, ptr @H5E_UNSUPPORTED_g, align 8, !tbaa !14
  %91 = call i32 (ptr, ptr, i32, i64, i64, ptr, ...) @H5E_printf_stack(ptr noundef @.str.1, ptr noundef @__func__.H5P__set_layout, i32 noundef 1787, i64 noundef %89, i64 noundef %90, ptr noundef @.str.7)
  br label %92

92:                                               ; preds = %88
  br label %93

93:                                               ; preds = %92
  store i8 1, ptr %8, align 1, !tbaa !10
  %94 = load i8, ptr %8, align 1, !tbaa !10, !range !12, !noundef !13
  %95 = trunc i8 %94 to i1
  %96 = zext i1 %95 to i8
  store i8 %96, ptr %8, align 1, !tbaa !10
  br label %97

97:                                               ; preds = %93
  br label %98

98:                                               ; preds = %97
  br label %99

99:                                               ; preds = %98
  store i32 -1, ptr %7, align 4, !tbaa !8
  store i32 10, ptr %10, align 4
  br label %128

100:                                              ; No predecessors!
  br label %101

101:                                              ; preds = %100
  br label %102

102:                                              ; preds = %101
  br label %103

103:                                              ; preds = %102
  br label %104

104:                                              ; preds = %103, %82, %80, %78
  %105 = load ptr, ptr %4, align 8, !tbaa !28
  %106 = call i32 @H5P_poke(ptr noundef %105, ptr noundef @.str.63, ptr noundef %9)
  %107 = icmp slt i32 %106, 0
  br i1 %107, label %108, label %127

108:                                              ; preds = %104
  br label %109

109:                                              ; preds = %108
  br label %110

110:                                              ; preds = %109
  br label %111

111:                                              ; preds = %110
  %112 = load i64, ptr @H5E_PLIST_g, align 8, !tbaa !14
  %113 = load i64, ptr @H5E_CANTSET_g, align 8, !tbaa !14
  %114 = call i32 (ptr, ptr, i32, i64, i64, ptr, ...) @H5E_printf_stack(ptr noundef @.str.1, ptr noundef @__func__.H5P__set_layout, i32 noundef 1792, i64 noundef %112, i64 noundef %113, ptr noundef @.str.81)
  br label %115

115:                                              ; preds = %111
  br label %116

116:                                              ; preds = %115
  store i8 1, ptr %8, align 1, !tbaa !10
  %117 = load i8, ptr %8, align 1, !tbaa !10, !range !12, !noundef !13
  %118 = trunc i8 %117 to i1
  %119 = zext i1 %118 to i8
  store i8 %119, ptr %8, align 1, !tbaa !10
  br label %120

120:                                              ; preds = %116
  br label %121

121:                                              ; preds = %120
  br label %122

122:                                              ; preds = %121
  store i32 -1, ptr %7, align 4, !tbaa !8
  store i32 10, ptr %10, align 4
  br label %128

123:                                              ; No predecessors!
  br label %124

124:                                              ; preds = %123
  br label %125

125:                                              ; preds = %124
  br label %126

126:                                              ; preds = %125
  br label %127

127:                                              ; preds = %126, %104
  store i32 0, ptr %10, align 4
  br label %128

128:                                              ; preds = %122, %99, %69, %127
  call void @llvm.lifetime.end.p0(i64 88, ptr %9) #11
  %129 = load i32, ptr %10, align 4
  switch i32 %129, label %159 [
    i32 0, label %130
    i32 10, label %156
  ]

130:                                              ; preds = %128
  br label %131

131:                                              ; preds = %130, %48
  %132 = load ptr, ptr %4, align 8, !tbaa !28
  %133 = load ptr, ptr %5, align 8, !tbaa !30
  %134 = call i32 @H5P_set(ptr noundef %132, ptr noundef @.str.9, ptr noundef %133)
  %135 = icmp slt i32 %134, 0
  br i1 %135, label %136, label %155

136:                                              ; preds = %131
  br label %137

137:                                              ; preds = %136
  br label %138

138:                                              ; preds = %137
  br label %139

139:                                              ; preds = %138
  %140 = load i64, ptr @H5E_PLIST_g, align 8, !tbaa !14
  %141 = load i64, ptr @H5E_CANTINIT_g, align 8, !tbaa !14
  %142 = call i32 (ptr, ptr, i32, i64, i64, ptr, ...) @H5E_printf_stack(ptr noundef @.str.1, ptr noundef @__func__.H5P__set_layout, i32 noundef 1797, i64 noundef %140, i64 noundef %141, ptr noundef @.str.8)
  br label %143

143:                                              ; preds = %139
  br label %144

144:                                              ; preds = %143
  store i8 1, ptr %8, align 1, !tbaa !10
  %145 = load i8, ptr %8, align 1, !tbaa !10, !range !12, !noundef !13
  %146 = trunc i8 %145 to i1
  %147 = zext i1 %146 to i8
  store i8 %147, ptr %8, align 1, !tbaa !10
  br label %148

148:                                              ; preds = %144
  br label %149

149:                                              ; preds = %148
  br label %150

150:                                              ; preds = %149
  store i32 -1, ptr %7, align 4, !tbaa !8
  br label %156

151:                                              ; No predecessors!
  br label %152

152:                                              ; preds = %151
  br label %153

153:                                              ; preds = %152
  br label %154

154:                                              ; preds = %153
  br label %155

155:                                              ; preds = %154, %131
  br label %156

156:                                              ; preds = %155, %128, %150, %43
  br label %157

157:                                              ; preds = %156, %17
  %158 = load i32, ptr %7, align 4, !tbaa !8
  store i32 %158, ptr %3, align 4
  store i32 1, ptr %10, align 4
  br label %159

159:                                              ; preds = %157, %128
  call void @llvm.lifetime.end.p0(i64 1, ptr %8) #11
  call void @llvm.lifetime.end.p0(i64 4, ptr %7) #11
  call void @llvm.lifetime.end.p0(i64 4, ptr %6) #11
  %160 = load i32, ptr %3, align 4
  ret i32 %160
}