; Function Attrs: nounwind uwtable
define internal fastcc range(i32 -1, 1) i32 @H5P__set_layout(ptr noundef nonnull %0, ptr noundef %1) unnamed_addr #0 {
  %3 = alloca i32, align 4
  %4 = alloca %struct.H5O_fill_t, align 8
  call void @llvm.lifetime.start.p0(i64 4, ptr nonnull %3) #12
  %5 = load i8, ptr @H5P_init_g, align 1, !tbaa !3, !range !7, !noundef !8
  %6 = trunc nuw i8 %5 to i1
  %7 = load i8, ptr @H5_libterm_g, align 1, !range !7
  %8 = trunc nuw i8 %7 to i1
  %9 = xor i1 %8, true
  %10 = select i1 %6, i1 true, i1 %9
  br i1 %10, label %11, label %50, !prof !9

11:                                               ; preds = %2
  %12 = call i32 @H5P_get(ptr noundef nonnull %0, ptr noundef nonnull @.str.80, ptr noundef nonnull %3) #12
  %13 = icmp slt i32 %12, 0
  br i1 %13, label %14, label %18

14:                                               ; preds = %11
  %15 = load i64, ptr @H5E_PLIST_g, align 8, !tbaa !10
  %16 = load i64, ptr @H5E_CANTGET_g, align 8, !tbaa !10
  %17 = call i32 (ptr, ptr, i32, i64, i64, ptr, ...) @H5E_printf_stack(ptr noundef nonnull @.str.1, ptr noundef nonnull @__func__.H5P__set_layout, i32 noundef 1759, i64 noundef %15, i64 noundef %16, ptr noundef nonnull @.str.110) #12
  br label %50

18:                                               ; preds = %11
  %19 = load i32, ptr %3, align 4, !tbaa !26
  %.not = icmp eq i32 %19, 0
  br i1 %.not, label %43, label %20

20:                                               ; preds = %18
  call void @llvm.lifetime.start.p0(i64 88, ptr nonnull %4) #12
  %21 = call i32 @H5P_peek(ptr noundef nonnull %0, ptr noundef nonnull @.str.63, ptr noundef nonnull %4) #12
  %22 = icmp slt i32 %21, 0
  br i1 %22, label %23, label %27

23:                                               ; preds = %20
  %24 = load i64, ptr @H5E_PLIST_g, align 8, !tbaa !10
  %25 = load i64, ptr @H5E_CANTGET_g, align 8, !tbaa !10
  %26 = call i32 (ptr, ptr, i32, i64, i64, ptr, ...) @H5E_printf_stack(ptr noundef nonnull @.str.1, ptr noundef nonnull @__func__.H5P__set_layout, i32 noundef 1767, i64 noundef %24, i64 noundef %25, ptr noundef nonnull @.str.64) #12
  br label %.thread

27:                                               ; preds = %20
  %28 = load i32, ptr %1, align 8, !tbaa !27
  %29 = icmp ult i32 %28, 4
  br i1 %29, label %switch.lookup, label %30

30:                                               ; preds = %27
  %31 = load i64, ptr @H5E_DATASET_g, align 8, !tbaa !10
  %32 = load i64, ptr @H5E_UNSUPPORTED_g, align 8, !tbaa !10
  %33 = call i32 (ptr, ptr, i32, i64, i64, ptr, ...) @H5E_printf_stack(ptr noundef nonnull @.str.1, ptr noundef nonnull @__func__.H5P__set_layout, i32 noundef 1787, i64 noundef %31, i64 noundef %32, ptr noundef nonnull @.str.7) #12
  br label %.thread

switch.lookup:                                    ; preds = %27
  %34 = zext nneg i32 %28 to i64
  %switch.gep = getelementptr inbounds nuw [4 x i32], ptr @switch.table.H5Pset_alloc_time, i64 0, i64 %34
  %switch.load = load i32, ptr %switch.gep, align 4
  %35 = getelementptr inbounds nuw i8, ptr %4, i64 72
  store i32 %switch.load, ptr %35, align 8, !tbaa !21
  %36 = call i32 @H5P_poke(ptr noundef nonnull %0, ptr noundef nonnull @.str.63, ptr noundef nonnull %4) #12
  %37 = icmp slt i32 %36, 0
  br i1 %37, label %38, label %42

38:                                               ; preds = %switch.lookup
  %39 = load i64, ptr @H5E_PLIST_g, align 8, !tbaa !10
  %40 = load i64, ptr @H5E_CANTSET_g, align 8, !tbaa !10
  %41 = call i32 (ptr, ptr, i32, i64, i64, ptr, ...) @H5E_printf_stack(ptr noundef nonnull @.str.1, ptr noundef nonnull @__func__.H5P__set_layout, i32 noundef 1792, i64 noundef %39, i64 noundef %40, ptr noundef nonnull @.str.81) #12
  br label %.thread

.thread:                                          ; preds = %23, %30, %38
  call void @llvm.lifetime.end.p0(i64 88, ptr nonnull %4) #12
  br label %50

42:                                               ; preds = %switch.lookup
  call void @llvm.lifetime.end.p0(i64 88, ptr nonnull %4) #12
  br label %43

43:                                               ; preds = %42, %18
  %44 = call i32 @H5P_set(ptr noundef nonnull %0, ptr noundef nonnull @.str.9, ptr noundef %1) #12
  %45 = icmp slt i32 %44, 0
  br i1 %45, label %46, label %50

46:                                               ; preds = %43
  %47 = load i64, ptr @H5E_PLIST_g, align 8, !tbaa !10
  %48 = load i64, ptr @H5E_CANTINIT_g, align 8, !tbaa !10
  %49 = call i32 (ptr, ptr, i32, i64, i64, ptr, ...) @H5E_printf_stack(ptr noundef nonnull @.str.1, ptr noundef nonnull @__func__.H5P__set_layout, i32 noundef 1797, i64 noundef %47, i64 noundef %48, ptr noundef nonnull @.str.8) #12
  br label %50

50:                                               ; preds = %.thread, %2, %43, %46, %14
  %.014 = phi i32 [ -1, %14 ], [ -1, %46 ], [ 0, %43 ], [ 0, %2 ], [ -1, %.thread ]
  call void @llvm.lifetime.end.p0(i64 4, ptr nonnull %3) #12
  ret i32 %.014
}